target datalayout = "e-m:e-p270:32:32-p271:32:32-p272:64:64-i64:64-i128:128-f80:128-n8:16:32:64-S128"
target triple = "x86_64-unknown-linux-gnu"

%struct.UserCreatableClass = type { %struct.InterfaceClass, ptr, ptr }
%struct.InterfaceClass = type { %struct.ObjectClass, ptr, ptr }
%struct.ObjectClass = type { ptr, ptr, [4 x ptr], [4 x ptr], ptr, ptr }
%struct.PRManagerClass = type { %struct.ObjectClass, ptr, ptr }

@.str.1 = private unnamed_addr constant [11 x i8] c"pr-manager\00", align 1
@.str.3 = private unnamed_addr constant [5 x i8] c"path\00", align 1
@.str.4 = private unnamed_addr constant [104 x i8] c"/home/dtcxzyw/WorkSpace/Projects/compilers/llvm-opt-benchmark/bench/qemu/qemu/include/scsi/pr-manager.h\00", align 1
@__func__.PR_MANAGER_CLASS = private unnamed_addr constant [17 x i8] c"PR_MANAGER_CLASS\00", align 1
@.str.5 = private unnamed_addr constant [15 x i8] c"user-creatable\00", align 1
@.str.6 = private unnamed_addr constant [110 x i8] c"/home/dtcxzyw/WorkSpace/Projects/compilers/llvm-opt-benchmark/bench/qemu/qemu/include/qom/object_interfaces.h\00", align 1
@__func__.USER_CREATABLE_CLASS = private unnamed_addr constant [21 x i8] c"USER_CREATABLE_CLASS\00", align 1

; Function Attrs: nounwind sspstrong uwtable
define internal ptr @USER_CREATABLE_CLASS(ptr noundef %klass) #0 {
entry:
  %klass.addr = alloca ptr, align 8
  store ptr %klass, ptr %klass.addr, align 8
  %0 = load ptr, ptr %klass.addr, align 8
  %call = call ptr @object_class_dynamic_cast_assert(ptr noundef %0, ptr noundef @.str.5, ptr noundef @.str.6, i32 noundef 12, ptr noundef @__func__.USER_CREATABLE_CLASS)
  ret ptr %call
}

; Function Attrs: nounwind sspstrong uwtable
define internal ptr @PR_MANAGER_CLASS(ptr noundef %klass) #0 {
entry:
  %klass.addr = alloca ptr, align 8
  store ptr %klass, ptr %klass.addr, align 8
  %0 = load ptr, ptr %klass.addr, align 8
  %call = call ptr @object_class_dynamic_cast_assert(ptr noundef %0, ptr noundef @.str.1, ptr noundef @.str.4, i32 noundef 12, ptr noundef @__func__.PR_MANAGER_CLASS)
  ret ptr %call
}

; Function Attrs: nounwind sspstrong uwtable
define internal void @pr_manager_helper_class_init(ptr noundef %klass, ptr noundef %class_data) #0 {
entry:
  %klass.addr = alloca ptr, align 8
  %class_data.addr = alloca ptr, align 8
  %prmgr_klass = alloca ptr, align 8
  %uc_klass = alloca ptr, align 8
  store ptr %klass, ptr %klass.addr, align 8
  store ptr %class_data, ptr %class_data.addr, align 8
  %0 = load ptr, ptr %klass.addr, align 8
  %call = call ptr @PR_MANAGER_CLASS(ptr noundef %0)
  store ptr %call, ptr %prmgr_klass, align 8
  %1 = load ptr, ptr %klass.addr, align 8
  %call1 = call ptr @USER_CREATABLE_CLASS(ptr noundef %1)
  store ptr %call1, ptr %uc_klass, align 8
  %2 = load ptr, ptr %klass.addr, align 8
  %call2 = call ptr @object_class_property_add_str(ptr noundef %2, ptr noundef @.str.3, ptr noundef @get_path, ptr noundef @set_path)
  %3 = load ptr, ptr %uc_klass, align 8
  %complete = getelementptr inbounds %struct.UserCreatableClass, ptr %3, i32 0, i32 1
  store ptr @pr_manager_helper_complete, ptr %complete, align 8
  %4 = load ptr, ptr %prmgr_klass, align 8
  %run = getelementptr inbounds %struct.PRManagerClass, ptr %4, i32 0, i32 1
  store ptr @pr_manager_helper_run, ptr %run, align 8
  %5 = load ptr, ptr %prmgr_klass, align 8
  %is_connected = getelementptr inbounds %struct.PRManagerClass, ptr %5, i32 0, i32 2
  store ptr @pr_manager_helper_is_connected, ptr %is_connected, align 8
  ret void
}