; Function Attrs: nounwind sspstrong uwtable
define internal void @pr_manager_helper_class_init(ptr noundef %klass, ptr readnone captures(none) %class_data) #0 {
entry:
  %call.i = tail call ptr @object_class_dynamic_cast_assert(ptr noundef %klass, ptr noundef nonnull @.str.1, ptr noundef nonnull @.str.4, i32 noundef 12, ptr noundef nonnull @__func__.PR_MANAGER_CLASS) #7
  %call.i4 = tail call ptr @object_class_dynamic_cast_assert(ptr noundef %klass, ptr noundef nonnull @.str.5, ptr noundef nonnull @.str.6, i32 noundef 12, ptr noundef nonnull @__func__.USER_CREATABLE_CLASS) #7
  %call2 = tail call ptr @object_class_property_add_str(ptr noundef %klass, ptr noundef nonnull @.str.3, ptr noundef nonnull @get_path, ptr noundef nonnull @set_path) #7
  %complete = getelementptr inbounds nuw i8, ptr %call.i4, i64 112
  store ptr @pr_manager_helper_complete, ptr %complete, align 8
  %run = getelementptr inbounds nuw i8, ptr %call.i, i64 96
  store ptr @pr_manager_helper_run, ptr %run, align 8
  %is_connected = getelementptr inbounds nuw i8, ptr %call.i, i64 104
  store ptr @pr_manager_helper_is_connected, ptr %is_connected, align 8
  ret void
}